; Function Attrs: mustprogress nofree norecurse nosync nounwind willreturn memory(write, argmem: readwrite, inaccessiblemem: none) uwtable
define hidden void @X11_HandleSyncRequest(ptr noundef readonly captures(none) %0, ptr noundef readonly captures(none) %1) local_unnamed_addr #4 {
  %3 = getelementptr inbounds nuw i8, ptr %0, i64 392
  %4 = load ptr, ptr %3, align 8
  %5 = getelementptr inbounds nuw i8, ptr %1, i64 72
  %6 = load i64, ptr %5, align 8
  %7 = trunc i64 %6 to i32
  %8 = getelementptr inbounds nuw i8, ptr %4, i64 456
  %9 = getelementptr inbounds nuw i8, ptr %4, i64 460
  store i32 %7, ptr %9, align 4
  %10 = getelementptr inbounds nuw i8, ptr %1, i64 80
  %11 = load i64, ptr %10, align 8
  %12 = trunc i64 %11 to i32
  store i32 %12, ptr %8, align 8
  %13 = getelementptr inbounds nuw i8, ptr %4, i64 464
  store i8 0, ptr %13, align 8
  ret void
}